target datalayout = "e-m:e-p270:32:32-p271:32:32-p272:64:64-i64:64-i128:128-f80:128-n8:16:32:64-S128"
target triple = "x86_64-pc-linux-gnu"

%struct.H5SL_node_t = type { ptr, ptr, i64, i64, i32, ptr, ptr }

@H5SL_init_g = global i8 0, align 1
@H5_libterm_g = external global i8, align 1
@H5SL_fac_g = internal global ptr null, align 8
@.str = private unnamed_addr constant [98 x i8] c"generated/home/dtcxzyw/WorkSpace/Projects/compilers/llvm-opt-benchmark/bench/hdf5/hdf5/src/H5SL.c\00", align 1
@H5E_SLIST_g = external global i64, align 8
@H5E_NOSPACE_g = external global i64, align 8
@.str.2 = private unnamed_addr constant [25 x i8] c"memory allocation failed\00", align 1
@__func__.H5SL__new_node = private unnamed_addr constant [15 x i8] c"H5SL__new_node\00", align 1
@H5_H5SL_node_t_reg_free_list = internal global { i8, [3 x i8], i32, i32, [4 x i8], ptr, i64, ptr } { i8 0, [3 x i8] zeroinitializer, i32 0, i32 0, [4 x i8] zeroinitializer, ptr @.str.9, i64 56, ptr null }, align 8

; Function Attrs: nounwind uwtable
define internal ptr @H5SL__new_node(ptr noundef %0, ptr noundef %1, i32 noundef %2) #0 {
  %4 = alloca ptr, align 8
  %5 = alloca ptr, align 8
  %6 = alloca i32, align 4
  %7 = alloca ptr, align 8
  %8 = alloca i8, align 1
  store ptr %0, ptr %4, align 8, !tbaa !20
  store ptr %1, ptr %5, align 8, !tbaa !20
  store i32 %2, ptr %6, align 4, !tbaa !16
  call void @llvm.lifetime.start.p0(i64 8, ptr %7) #8
  store ptr null, ptr %7, align 8, !tbaa !29
  call void @llvm.lifetime.start.p0(i64 1, ptr %8) #8
  store i8 0, ptr %8, align 1, !tbaa !3
  %9 = load i8, ptr @H5SL_init_g, align 1, !tbaa !3, !range !7, !noundef !8
  %10 = trunc i8 %9 to i1
  br i1 %10, label %15, label %11

11:                                               ; preds = %3
  %12 = load i8, ptr @H5_libterm_g, align 1, !tbaa !3, !range !7, !noundef !8
  %13 = trunc i8 %12 to i1
  %14 = xor i1 %13, true
  br label %15

15:                                               ; preds = %11, %3
  %16 = phi i1 [ true, %3 ], [ %14, %11 ]
  %17 = xor i1 %16, true
  %18 = xor i1 %17, true
  %19 = zext i1 %18 to i32
  %20 = sext i32 %19 to i64
  %21 = call i64 @llvm.expect.i64(i64 %20, i64 1)
  %22 = icmp ne i64 %21, 0
  br i1 %22, label %23, label %89

23:                                               ; preds = %15
  %24 = call noalias ptr @H5FL_reg_malloc(ptr noundef @H5_H5SL_node_t_reg_free_list)
  store ptr %24, ptr %7, align 8, !tbaa !29
  %25 = icmp eq ptr null, %24
  br i1 %25, label %26, label %45

26:                                               ; preds = %23
  br label %27

27:                                               ; preds = %26
  br label %28

28:                                               ; preds = %27
  br label %29

29:                                               ; preds = %28
  %30 = load i64, ptr @H5E_SLIST_g, align 8, !tbaa !12
  %31 = load i64, ptr @H5E_NOSPACE_g, align 8, !tbaa !12
  %32 = call i32 (ptr, ptr, i32, i64, i64, ptr, ...) @H5E_printf_stack(ptr noundef @.str, ptr noundef @__func__.H5SL__new_node, i32 noundef 648, i64 noundef %30, i64 noundef %31, ptr noundef @.str.2)
  br label %33

33:                                               ; preds = %29
  br label %34

34:                                               ; preds = %33
  store i8 1, ptr %8, align 1, !tbaa !3
  %35 = load i8, ptr %8, align 1, !tbaa !3, !range !7, !noundef !8
  %36 = trunc i8 %35 to i1
  %37 = zext i1 %36 to i8
  store i8 %37, ptr %8, align 1, !tbaa !3
  br label %38

38:                                               ; preds = %34
  br label %39

39:                                               ; preds = %38
  br label %40

40:                                               ; preds = %39
  store ptr null, ptr %7, align 8, !tbaa !29
  br label %88

41:                                               ; No predecessors!
  br label %42

42:                                               ; preds = %41
  br label %43

43:                                               ; preds = %42
  br label %44

44:                                               ; preds = %43
  br label %45

45:                                               ; preds = %44, %23
  %46 = load ptr, ptr %5, align 8, !tbaa !20
  %47 = load ptr, ptr %7, align 8, !tbaa !29
  %48 = getelementptr inbounds nuw %struct.H5SL_node_t, ptr %47, i32 0, i32 0
  store ptr %46, ptr %48, align 8, !tbaa !36
  %49 = load ptr, ptr %4, align 8, !tbaa !20
  %50 = load ptr, ptr %7, align 8, !tbaa !29
  %51 = getelementptr inbounds nuw %struct.H5SL_node_t, ptr %50, i32 0, i32 1
  store ptr %49, ptr %51, align 8, !tbaa !37
  %52 = load ptr, ptr %7, align 8, !tbaa !29
  %53 = getelementptr inbounds nuw %struct.H5SL_node_t, ptr %52, i32 0, i32 2
  store i64 0, ptr %53, align 8, !tbaa !38
  %54 = load i32, ptr %6, align 4, !tbaa !16
  %55 = load ptr, ptr %7, align 8, !tbaa !29
  %56 = getelementptr inbounds nuw %struct.H5SL_node_t, ptr %55, i32 0, i32 4
  store i32 %54, ptr %56, align 8, !tbaa !39
  %57 = load ptr, ptr @H5SL_fac_g, align 8, !tbaa !9
  %58 = getelementptr inbounds ptr, ptr %57, i64 0
  %59 = load ptr, ptr %58, align 8, !tbaa !14
  %60 = call noalias ptr @H5FL_fac_malloc(ptr noundef %59)
  %61 = load ptr, ptr %7, align 8, !tbaa !29
  %62 = getelementptr inbounds nuw %struct.H5SL_node_t, ptr %61, i32 0, i32 5
  store ptr %60, ptr %62, align 8, !tbaa !30
  %63 = icmp eq ptr null, %60
  br i1 %63, label %64, label %85

64:                                               ; preds = %45
  %65 = load ptr, ptr %7, align 8, !tbaa !29
  %66 = call ptr @H5FL_reg_free(ptr noundef @H5_H5SL_node_t_reg_free_list, ptr noundef %65)
  store ptr %66, ptr %7, align 8, !tbaa !29
  br label %67

67:                                               ; preds = %64
  br label %68

68:                                               ; preds = %67
  br label %69

69:                                               ; preds = %68
  %70 = load i64, ptr @H5E_SLIST_g, align 8, !tbaa !12
  %71 = load i64, ptr @H5E_NOSPACE_g, align 8, !tbaa !12
  %72 = call i32 (ptr, ptr, i32, i64, i64, ptr, ...) @H5E_printf_stack(ptr noundef @.str, ptr noundef @__func__.H5SL__new_node, i32 noundef 657, i64 noundef %70, i64 noundef %71, ptr noundef @.str.2)
  br label %73

73:                                               ; preds = %69
  br label %74

74:                                               ; preds = %73
  store i8 1, ptr %8, align 1, !tbaa !3
  %75 = load i8, ptr %8, align 1, !tbaa !3, !range !7, !noundef !8
  %76 = trunc i8 %75 to i1
  %77 = zext i1 %76 to i8
  store i8 %77, ptr %8, align 1, !tbaa !3
  br label %78

78:                                               ; preds = %74
  br label %79

79:                                               ; preds = %78
  br label %80

80:                                               ; preds = %79
  store ptr null, ptr %7, align 8, !tbaa !29
  br label %88

81:                                               ; No predecessors!
  br label %82

82:                                               ; preds = %81
  br label %83

83:                                               ; preds = %82
  br label %84

84:                                               ; preds = %83
  br label %85

85:                                               ; preds = %84, %45
  %86 = load ptr, ptr %7, align 8, !tbaa !29
  %87 = getelementptr inbounds nuw %struct.H5SL_node_t, ptr %86, i32 0, i32 3
  store i64 0, ptr %87, align 8, !tbaa !40
  br label %88

88:                                               ; preds = %85, %80, %40
  br label %89

89:                                               ; preds = %88, %15
  %90 = load ptr, ptr %7, align 8, !tbaa !29
  call void @llvm.lifetime.end.p0(i64 1, ptr %8) #8
  call void @llvm.lifetime.end.p0(i64 8, ptr %7) #8
  ret ptr %90
}