; Function Attrs: nounwind uwtable
define internal fastcc ptr @H5SL__new_node(ptr noundef %0, ptr noundef %1, i32 noundef %2) unnamed_addr #0 {
  %4 = load i8, ptr @H5SL_init_g, align 1, !tbaa !3, !range !7, !noundef !8
  %5 = trunc nuw i8 %4 to i1
  %6 = load i8, ptr @H5_libterm_g, align 1, !range !7
  %7 = trunc nuw i8 %6 to i1
  %8 = xor i1 %7, true
  %9 = select i1 %5, i1 true, i1 %8
  br i1 %9, label %10, label %33, !prof !9

10:                                               ; preds = %3
  %11 = tail call noalias ptr @H5FL_reg_malloc(ptr noundef nonnull @H5_H5SL_node_t_reg_free_list) #9
  %12 = icmp eq ptr %11, null
  br i1 %12, label %13, label %17

13:                                               ; preds = %10
  %14 = load i64, ptr @H5E_SLIST_g, align 8, !tbaa !13
  %15 = load i64, ptr @H5E_NOSPACE_g, align 8, !tbaa !13
  %16 = tail call i32 (ptr, ptr, i32, i64, i64, ptr, ...) @H5E_printf_stack(ptr noundef nonnull @.str, ptr noundef nonnull @__func__.H5SL__new_node, i32 noundef 648, i64 noundef %14, i64 noundef %15, ptr noundef nonnull @.str.2) #9
  br label %33

17:                                               ; preds = %10
  store ptr %1, ptr %11, align 8, !tbaa !34
  %18 = getelementptr inbounds nuw i8, ptr %11, i64 8
  store ptr %0, ptr %18, align 8, !tbaa !35
  %19 = getelementptr inbounds nuw i8, ptr %11, i64 16
  store i64 0, ptr %19, align 8, !tbaa !36
  %20 = getelementptr inbounds nuw i8, ptr %11, i64 32
  store i32 %2, ptr %20, align 8, !tbaa !37
  %21 = load ptr, ptr @H5SL_fac_g, align 8, !tbaa !10
  %22 = load ptr, ptr %21, align 8, !tbaa !15
  %23 = tail call noalias ptr @H5FL_fac_malloc(ptr noundef %22) #9
  %24 = getelementptr inbounds nuw i8, ptr %11, i64 40
  store ptr %23, ptr %24, align 8, !tbaa !27
  %25 = icmp eq ptr %23, null
  br i1 %25, label %26, label %31

26:                                               ; preds = %17
  %27 = tail call ptr @H5FL_reg_free(ptr noundef nonnull @H5_H5SL_node_t_reg_free_list, ptr noundef nonnull %11) #9
  %28 = load i64, ptr @H5E_SLIST_g, align 8, !tbaa !13
  %29 = load i64, ptr @H5E_NOSPACE_g, align 8, !tbaa !13
  %30 = tail call i32 (ptr, ptr, i32, i64, i64, ptr, ...) @H5E_printf_stack(ptr noundef nonnull @.str, ptr noundef nonnull @__func__.H5SL__new_node, i32 noundef 657, i64 noundef %28, i64 noundef %29, ptr noundef nonnull @.str.2) #9
  br label %33

31:                                               ; preds = %17
  %32 = getelementptr inbounds nuw i8, ptr %11, i64 24
  store i64 0, ptr %32, align 8, !tbaa !38
  br label %33

33:                                               ; preds = %13, %26, %31, %3
  %.0 = phi ptr [ null, %13 ], [ null, %26 ], [ %11, %31 ], [ null, %3 ]
  ret ptr %.0
}